target datalayout = "e-m:e-p270:32:32-p271:32:32-p272:64:64-i64:64-i128:128-f80:128-n8:16:32:64-S128"
target triple = "x86_64-unknown-linux-gnu"

; Function Attrs: mustprogress uwtable
define hidden noundef zeroext i1 @_Z9is_sortedjPKP4expr(i32 noundef %num, ptr noundef %ns) #4 {
entry:
  %retval = alloca i1, align 1
  %num.addr = alloca i32, align 4
  %ns.addr = alloca ptr, align 8
  %i = alloca i32, align 4
  %prev = alloca ptr, align 8
  %curr = alloca ptr, align 8
  store i32 %num, ptr %num.addr, align 4
  store ptr %ns, ptr %ns.addr, align 8
  store i32 1, ptr %i, align 4
  br label %for.cond

for.cond:                                         ; preds = %for.inc, %entry
  %0 = load i32, ptr %i, align 4
  %1 = load i32, ptr %num.addr, align 4
  %cmp = icmp ult i32 %0, %1
  br i1 %cmp, label %for.body, label %for.end

for.body:                                         ; preds = %for.cond
  %2 = load ptr, ptr %ns.addr, align 8
  %3 = load i32, ptr %i, align 4
  %sub = sub i32 %3, 1
  %idxprom = zext i32 %sub to i64
  %arrayidx = getelementptr inbounds ptr, ptr %2, i64 %idxprom
  %4 = load ptr, ptr %arrayidx, align 8
  store ptr %4, ptr %prev, align 8
  %5 = load ptr, ptr %ns.addr, align 8
  %6 = load i32, ptr %i, align 4
  %idxprom1 = zext i32 %6 to i64
  %arrayidx2 = getelementptr inbounds ptr, ptr %5, i64 %idxprom1
  %7 = load ptr, ptr %arrayidx2, align 8
  store ptr %7, ptr %curr, align 8
  %8 = load ptr, ptr %curr, align 8
  %9 = load ptr, ptr %prev, align 8
  %call = call noundef zeroext i1 @_Z2ltP3astS0_(ptr noundef %8, ptr noundef %9)
  br i1 %call, label %if.then, label %if.end

if.then:                                          ; preds = %for.body
  store i1 false, ptr %retval, align 1
  br label %return

if.end:                                           ; preds = %for.body
  br label %for.inc

for.inc:                                          ; preds = %if.end
  %10 = load i32, ptr %i, align 4
  %inc = add i32 %10, 1
  store i32 %inc, ptr %i, align 4
  br label %for.cond, !llvm.loop !12

for.end:                                          ; preds = %for.cond
  store i1 true, ptr %retval, align 1
  br label %return

return:                                           ; preds = %for.end, %if.then
  %11 = load i1, ptr %retval, align 1
  ret i1 %11
}